target datalayout = "e-m:e-p270:32:32-p271:32:32-p272:64:64-i64:64-i128:128-f80:128-n8:16:32:64-S128"
target triple = "x86_64-unknown-linux-gnu"

%struct.LocalInfoAdder = type <{ %"struct.btCollisionWorld::ConvexResultCallback.base", [4 x i8], ptr, i32, [4 x i8] }>
%"struct.btCollisionWorld::ConvexResultCallback.base" = type <{ ptr, float, i32, i32 }>

; Function Attrs: mustprogress uwtable
define internal noundef zeroext i1 @_ZZZN16btCollisionWorld25objectQuerySingleInternalEPK13btConvexShapeRK11btTransformS5_PK24btCollisionObjectWrapperRNS_20ConvexResultCallbackEfEN22btCompoundLeafCallback12ProcessChildEiS5_PK16btCollisionShapeENK14LocalInfoAdder14needsCollisionEP17btBroadphaseProxy(ptr noundef nonnull align 8 dereferenceable(36) %this, ptr noundef %p) unnamed_addr #2 align 2 {
entry:
  %this.addr = alloca ptr, align 8
  %p.addr = alloca ptr, align 8
  store ptr %this, ptr %this.addr, align 8
  store ptr %p, ptr %p.addr, align 8
  %this1 = load ptr, ptr %this.addr, align 8
  %m_userCallback = getelementptr inbounds %struct.LocalInfoAdder, ptr %this1, i32 0, i32 2
  %0 = load ptr, ptr %m_userCallback, align 8
  %1 = load ptr, ptr %p.addr, align 8
  %vtable = load ptr, ptr %0, align 8
  %vfn = getelementptr inbounds ptr, ptr %vtable, i64 2
  %2 = load ptr, ptr %vfn, align 8
  %call = call noundef zeroext i1 %2(ptr noundef nonnull align 8 dereferenceable(20) %0, ptr noundef %1)
  ret i1 %call
}