; Function Attrs: mustprogress uwtable
define internal noundef zeroext i1 @_ZZZN16btCollisionWorld25objectQuerySingleInternalEPK13btConvexShapeRK11btTransformS5_PK24btCollisionObjectWrapperRNS_20ConvexResultCallbackEfEN22btCompoundLeafCallback12ProcessChildEiS5_PK16btCollisionShapeENK14LocalInfoAdder14needsCollisionEP17btBroadphaseProxy(ptr nocapture noundef nonnull readonly align 8 dereferenceable(36) %this, ptr noundef %p) unnamed_addr #4 align 2 {
entry:
  %m_userCallback = getelementptr inbounds i8, ptr %this, i64 24
  %0 = load ptr, ptr %m_userCallback, align 8
  %vtable = load ptr, ptr %0, align 8
  %vfn = getelementptr inbounds i8, ptr %vtable, i64 16
  %1 = load ptr, ptr %vfn, align 8
  %call = tail call noundef zeroext i1 %1(ptr noundef nonnull align 8 dereferenceable(20) %0, ptr noundef %p)
  ret i1 %call
}